; Function Attrs: nounwind uwtable
define internal ptr @_codecs_utf_32_be_decode(ptr readnone captures(none) %0, ptr noundef readonly captures(none) %1, i64 noundef %2) #0 {
  %4 = alloca i32, align 4
  %5 = alloca i64, align 8
  %6 = alloca %struct.Py_buffer, align 8
  %7 = alloca i64, align 8
  call void @llvm.lifetime.start.p0(i64 80, ptr nonnull %6) #5
  call void @llvm.memset.p0.i64(ptr noundef nonnull align 8 dereferenceable(80) %6, i8 0, i64 80, i1 false)
  %8 = add i64 %2, -1
  %or.cond = icmp ult i64 %8, 3
  br i1 %or.cond, label %11, label %9

9:                                                ; preds = %3
  %10 = tail call i32 @_PyArg_CheckPositional(ptr noundef nonnull @.str.24, i64 noundef %2, i64 noundef 1, i64 noundef 3) #5
  %.not = icmp eq i32 %10, 0
  br i1 %.not, label %51, label %11

11:                                               ; preds = %3, %9
  %12 = load ptr, ptr %1, align 8, !tbaa !22
  %13 = call i32 @PyObject_GetBuffer(ptr noundef %12, ptr noundef nonnull %6, i32 noundef 0) #5
  %.not28 = icmp eq i32 %13, 0
  br i1 %.not28, label %14, label %51

14:                                               ; preds = %11
  %15 = icmp slt i64 %2, 2
  br i1 %15, label %.thread39, label %16

16:                                               ; preds = %14
  %17 = getelementptr i8, ptr %1, i64 8
  %18 = load ptr, ptr %17, align 8, !tbaa !22
  %19 = icmp eq ptr %18, @_Py_NoneStruct
  br i1 %19, label %34, label %20

20:                                               ; preds = %16
  %21 = getelementptr i8, ptr %18, i64 8
  %.val = load ptr, ptr %21, align 8, !tbaa !4
  %22 = getelementptr i8, ptr %.val, i64 168
  %.val33 = load i64, ptr %22, align 8, !tbaa !10
  %23 = and i64 %.val33, 268435456
  %.not29 = icmp eq i64 %23, 0
  br i1 %.not29, label %33, label %24

24:                                               ; preds = %20
  call void @llvm.lifetime.start.p0(i64 8, ptr nonnull %7) #5
  %25 = call ptr @PyUnicode_AsUTF8AndSize(ptr noundef %18, ptr noundef nonnull %7) #5
  %26 = icmp eq ptr %25, null
  br i1 %26, label %.thread, label %27

27:                                               ; preds = %24
  %28 = call i64 @strlen(ptr noundef nonnull dereferenceable(1) %25) #6
  %29 = load i64, ptr %7, align 8, !tbaa !21
  %.not30 = icmp eq i64 %28, %29
  br i1 %.not30, label %32, label %30

30:                                               ; preds = %27
  %31 = load ptr, ptr @PyExc_ValueError, align 8, !tbaa !22
  call void @PyErr_SetString(ptr noundef %31, ptr noundef nonnull @.str.44) #5
  br label %.thread

.thread:                                          ; preds = %30, %24
  call void @llvm.lifetime.end.p0(i64 8, ptr nonnull %7) #5
  br label %51

32:                                               ; preds = %27
  call void @llvm.lifetime.end.p0(i64 8, ptr nonnull %7) #5
  br label %34

33:                                               ; preds = %20
  call void @_PyArg_BadArgument(ptr noundef nonnull @.str.24, ptr noundef nonnull @.str.52, ptr noundef nonnull @.str.53, ptr noundef %18) #5
  br label %51

34:                                               ; preds = %32, %16
  %.1 = phi ptr [ %25, %32 ], [ null, %16 ]
  %35 = icmp eq i64 %2, 2
  br i1 %35, label %.thread39, label %36

36:                                               ; preds = %34
  %37 = getelementptr i8, ptr %1, i64 16
  %38 = load ptr, ptr %37, align 8, !tbaa !22
  %39 = call i32 @PyObject_IsTrue(ptr noundef %38) #5
  %.fr = freeze i32 %39
  %40 = icmp slt i32 %.fr, 0
  br i1 %40, label %51, label %42

.thread39:                                        ; preds = %14, %34
  %.021.ph = phi ptr [ %.1, %34 ], [ null, %14 ]
  %.val3442 = load ptr, ptr %6, align 8, !tbaa !28
  %41 = getelementptr inbounds nuw i8, ptr %6, i64 16
  %.val3543 = load i64, ptr %41, align 8, !tbaa !31
  call void @llvm.lifetime.start.p0(i64 4, ptr nonnull %4) #5
  store i32 1, ptr %4, align 4, !tbaa !36
  call void @llvm.lifetime.start.p0(i64 8, ptr nonnull %5) #5
  store i64 %.val3543, ptr %5, align 8, !tbaa !21
  br label %44

42:                                               ; preds = %36
  %.val34 = load ptr, ptr %6, align 8, !tbaa !28
  %43 = getelementptr inbounds nuw i8, ptr %6, i64 16
  %.val35 = load i64, ptr %43, align 8, !tbaa !31
  call void @llvm.lifetime.start.p0(i64 4, ptr nonnull %4) #5
  store i32 1, ptr %4, align 4, !tbaa !36
  call void @llvm.lifetime.start.p0(i64 8, ptr nonnull %5) #5
  store i64 %.val35, ptr %5, align 8, !tbaa !21
  %.not.i = icmp eq i32 %.fr, 0
  %spec.select = select i1 %.not.i, ptr %5, ptr null
  br label %44

44:                                               ; preds = %42, %.thread39
  %.val3550 = phi i64 [ %.val3543, %.thread39 ], [ %.val35, %42 ]
  %.val3448 = phi ptr [ %.val3442, %.thread39 ], [ %.val34, %42 ]
  %.02146 = phi ptr [ %.021.ph, %.thread39 ], [ %.1, %42 ]
  %45 = phi ptr [ %5, %.thread39 ], [ %spec.select, %42 ]
  %46 = call ptr @PyUnicode_DecodeUTF32Stateful(ptr noundef %.val3448, i64 noundef %.val3550, ptr noundef %.02146, ptr noundef nonnull %4, ptr noundef %45) #5
  %47 = icmp eq ptr %46, null
  br i1 %47, label %_codecs_utf_32_be_decode_impl.exit, label %48

48:                                               ; preds = %44
  %49 = load i64, ptr %5, align 8, !tbaa !21
  %50 = call ptr (ptr, ...) @Py_BuildValue(ptr noundef nonnull @.str.55, ptr noundef nonnull %46, i64 noundef %49) #5
  br label %_codecs_utf_32_be_decode_impl.exit

_codecs_utf_32_be_decode_impl.exit:               ; preds = %44, %48
  %.0.i.i = phi ptr [ %50, %48 ], [ null, %44 ]
  call void @llvm.lifetime.end.p0(i64 8, ptr nonnull %5) #5
  call void @llvm.lifetime.end.p0(i64 4, ptr nonnull %4) #5
  br label %51

51:                                               ; preds = %.thread, %36, %11, %9, %_codecs_utf_32_be_decode_impl.exit, %33
  %.022 = phi ptr [ null, %11 ], [ %.0.i.i, %_codecs_utf_32_be_decode_impl.exit ], [ null, %36 ], [ null, %33 ], [ null, %9 ], [ null, %.thread ]
  %52 = getelementptr inbounds nuw i8, ptr %6, i64 8
  %53 = load ptr, ptr %52, align 8, !tbaa !32
  %.not31 = icmp eq ptr %53, null
  br i1 %.not31, label %55, label %54

54:                                               ; preds = %51
  call void @PyBuffer_Release(ptr noundef nonnull %6) #5
  br label %55

55:                                               ; preds = %51, %54
  call void @llvm.lifetime.end.p0(i64 80, ptr nonnull %6) #5
  ret ptr %.022
}